; Function Attrs: mustprogress uwtable
define hidden void @_ZNK6spacer24lemma_global_generalizer18collect_statisticsER10statistics(ptr noundef nonnull align 8 captures(none) dereferenceable(225) %0, ptr noundef nonnull align 8 dereferenceable(16) %1) unnamed_addr #3 align 2 {
  %3 = getelementptr inbounds nuw i8, ptr %0, i64 56
  %4 = load i8, ptr %3, align 8, !tbaa !188, !range !181, !noundef !182
  %5 = trunc nuw i8 %4 to i1
  br i1 %5, label %_ZN9stopwatch4stopEv.exit.i, label %_ZNK9stopwatch11get_secondsEv.exit

_ZN9stopwatch4stopEv.exit.i:                      ; preds = %2
  %6 = getelementptr inbounds nuw i8, ptr %0, i64 40
  %7 = tail call i64 @_ZNSt6chrono3_V212steady_clock3nowEv() #23
  %.sroa.0.0.copyload.i2.i.i.i = load i64, ptr %6, align 8, !tbaa !189
  %8 = sub i64 %7, %.sroa.0.0.copyload.i2.i.i.i
  %9 = getelementptr inbounds nuw i8, ptr %0, i64 48
  %10 = load i64, ptr %9, align 8, !tbaa !190
  %11 = add nsw i64 %8, %10
  store i64 %11, ptr %9, align 8, !tbaa !190
  store i8 0, ptr %3, align 8, !tbaa !188
  %12 = tail call i64 @_ZNSt6chrono3_V212steady_clock3nowEv() #23
  store i64 %12, ptr %6, align 8, !tbaa !189
  store i8 1, ptr %3, align 8, !tbaa !188
  br label %_ZNK9stopwatch11get_secondsEv.exit

_ZNK9stopwatch11get_secondsEv.exit:               ; preds = %2, %_ZN9stopwatch4stopEv.exit.i
  %13 = getelementptr inbounds nuw i8, ptr %0, i64 16
  %14 = getelementptr inbounds nuw i8, ptr %0, i64 48
  %15 = load i64, ptr %14, align 8, !tbaa !190
  %16 = sdiv i64 %15, 1000000
  %17 = sitofp i64 %16 to double
  %18 = fdiv double %17, 1.000000e+03
  tail call void @_ZN10statistics6updateEPKcd(ptr noundef nonnull align 8 dereferenceable(16) %1, ptr noundef nonnull @.str.9, double noundef %18)
  %19 = load i32, ptr %13, align 8, !tbaa !216
  tail call void @_ZN10statistics6updateEPKcj(ptr noundef nonnull align 8 dereferenceable(16) %1, ptr noundef nonnull @.str.10, i32 noundef %19)
  %20 = getelementptr inbounds nuw i8, ptr %0, i64 28
  %21 = load i32, ptr %20, align 4, !tbaa !219
  tail call void @_ZN10statistics6updateEPKcj(ptr noundef nonnull align 8 dereferenceable(16) %1, ptr noundef nonnull @.str.11, i32 noundef %21)
  %22 = getelementptr inbounds nuw i8, ptr %0, i64 36
  %23 = load i32, ptr %22, align 4, !tbaa !407
  tail call void @_ZN10statistics6updateEPKcj(ptr noundef nonnull align 8 dereferenceable(16) %1, ptr noundef nonnull @.str.12, i32 noundef %23)
  ret void
}